target datalayout = "e-m:e-p270:32:32-p271:32:32-p272:64:64-i64:64-i128:128-f80:128-n8:16:32:64-S128"
target triple = "x86_64-pc-linux-gnu"

%"class.cv::Size_" = type { i32, i32 }
%"struct.cv::InRange_SIMD.0" = type { i8 }

; Function Attrs: mustprogress nounwind uwtable
define linkonce_odr hidden noundef i32 @_ZNK2cv12InRange_SIMDIaEclEPKaS3_S3_Phi(ptr noundef nonnull align 1 dereferenceable(1) %0, ptr noundef %1, ptr noundef %2, ptr noundef %3, ptr noundef %4, i32 noundef %5) #2 comdat align 2 {
  %7 = alloca ptr, align 8
  %8 = alloca ptr, align 8
  %9 = alloca ptr, align 8
  %10 = alloca ptr, align 8
  %11 = alloca ptr, align 8
  %12 = alloca i32, align 4
  store ptr %0, ptr %7, align 8
  store ptr %1, ptr %8, align 8
  store ptr %2, ptr %9, align 8
  store ptr %3, ptr %10, align 8
  store ptr %4, ptr %11, align 8
  store i32 %5, ptr %12, align 4
  ret i32 0
}

; Function Attrs: mustprogress uwtable
define internal void @_ZN2cvL8inRange_IaEEvPKT_mS3_mS3_mPhmNS_5Size_IiEE(ptr noundef %0, i64 noundef %1, ptr noundef %2, i64 noundef %3, ptr noundef %4, i64 noundef %5, ptr noundef %6, i64 noundef %7, i64 %8) #0 {
  %10 = alloca %"class.cv::Size_", align 4
  %11 = alloca ptr, align 8
  %12 = alloca i64, align 8
  %13 = alloca ptr, align 8
  %14 = alloca i64, align 8
  %15 = alloca ptr, align 8
  %16 = alloca i64, align 8
  %17 = alloca ptr, align 8
  %18 = alloca i64, align 8
  %19 = alloca %"struct.cv::InRange_SIMD.0", align 1
  %20 = alloca i32, align 4
  store i64 %8, ptr %10, align 4
  store ptr %0, ptr %11, align 8
  store i64 %1, ptr %12, align 8
  store ptr %2, ptr %13, align 8
  store i64 %3, ptr %14, align 8
  store ptr %4, ptr %15, align 8
  store i64 %5, ptr %16, align 8
  store ptr %6, ptr %17, align 8
  store i64 %7, ptr %18, align 8
  %21 = load i64, ptr %12, align 8
  %22 = udiv i64 %21, 1
  store i64 %22, ptr %12, align 8
  %23 = load i64, ptr %14, align 8
  %24 = udiv i64 %23, 1
  store i64 %24, ptr %14, align 8
  %25 = load i64, ptr %16, align 8
  %26 = udiv i64 %25, 1
  store i64 %26, ptr %16, align 8
  br label %27

27:                                               ; preds = %86, %9
  %28 = getelementptr inbounds %"class.cv::Size_", ptr %10, i32 0, i32 1
  %29 = load i32, ptr %28, align 4
  %30 = add nsw i32 %29, -1
  store i32 %30, ptr %28, align 4
  %31 = icmp ne i32 %29, 0
  br i1 %31, label %32, label %99

32:                                               ; preds = %27
  %33 = load ptr, ptr %11, align 8
  %34 = load ptr, ptr %13, align 8
  %35 = load ptr, ptr %15, align 8
  %36 = load ptr, ptr %17, align 8
  %37 = getelementptr inbounds %"class.cv::Size_", ptr %10, i32 0, i32 0
  %38 = load i32, ptr %37, align 4
  %39 = call noundef i32 @_ZNK2cv12InRange_SIMDIaEclEPKaS3_S3_Phi(ptr noundef nonnull align 1 dereferenceable(1) %19, ptr noundef %33, ptr noundef %34, ptr noundef %35, ptr noundef %36, i32 noundef %38)
  store i32 %39, ptr %20, align 4
  br label %40

40:                                               ; preds = %82, %32
  %41 = load i32, ptr %20, align 4
  %42 = getelementptr inbounds %"class.cv::Size_", ptr %10, i32 0, i32 0
  %43 = load i32, ptr %42, align 4
  %44 = icmp slt i32 %41, %43
  br i1 %44, label %45, label %85

45:                                               ; preds = %40
  %46 = load ptr, ptr %13, align 8
  %47 = load i32, ptr %20, align 4
  %48 = sext i32 %47 to i64
  %49 = getelementptr inbounds i8, ptr %46, i64 %48
  %50 = load i8, ptr %49, align 1
  %51 = sext i8 %50 to i32
  %52 = load ptr, ptr %11, align 8
  %53 = load i32, ptr %20, align 4
  %54 = sext i32 %53 to i64
  %55 = getelementptr inbounds i8, ptr %52, i64 %54
  %56 = load i8, ptr %55, align 1
  %57 = sext i8 %56 to i32
  %58 = icmp sle i32 %51, %57
  br i1 %58, label %59, label %73

59:                                               ; preds = %45
  %60 = load ptr, ptr %11, align 8
  %61 = load i32, ptr %20, align 4
  %62 = sext i32 %61 to i64
  %63 = getelementptr inbounds i8, ptr %60, i64 %62
  %64 = load i8, ptr %63, align 1
  %65 = sext i8 %64 to i32
  %66 = load ptr, ptr %15, align 8
  %67 = load i32, ptr %20, align 4
  %68 = sext i32 %67 to i64
  %69 = getelementptr inbounds i8, ptr %66, i64 %68
  %70 = load i8, ptr %69, align 1
  %71 = sext i8 %70 to i32
  %72 = icmp sle i32 %65, %71
  br label %73

73:                                               ; preds = %59, %45
  %74 = phi i1 [ false, %45 ], [ %72, %59 ]
  %75 = zext i1 %74 to i32
  %76 = sub nsw i32 0, %75
  %77 = trunc i32 %76 to i8
  %78 = load ptr, ptr %17, align 8
  %79 = load i32, ptr %20, align 4
  %80 = sext i32 %79 to i64
  %81 = getelementptr inbounds i8, ptr %78, i64 %80
  store i8 %77, ptr %81, align 1
  br label %82

82:                                               ; preds = %73
  %83 = load i32, ptr %20, align 4
  %84 = add nsw i32 %83, 1
  store i32 %84, ptr %20, align 4
  br label %40, !llvm.loop !28

85:                                               ; preds = %40
  br label %86

86:                                               ; preds = %85
  %87 = load i64, ptr %12, align 8
  %88 = load ptr, ptr %11, align 8
  %89 = getelementptr inbounds i8, ptr %88, i64 %87
  store ptr %89, ptr %11, align 8
  %90 = load i64, ptr %14, align 8
  %91 = load ptr, ptr %13, align 8
  %92 = getelementptr inbounds i8, ptr %91, i64 %90
  store ptr %92, ptr %13, align 8
  %93 = load i64, ptr %16, align 8
  %94 = load ptr, ptr %15, align 8
  %95 = getelementptr inbounds i8, ptr %94, i64 %93
  store ptr %95, ptr %15, align 8
  %96 = load i64, ptr %18, align 8
  %97 = load ptr, ptr %17, align 8
  %98 = getelementptr inbounds i8, ptr %97, i64 %96
  store ptr %98, ptr %17, align 8
  br label %27, !llvm.loop !29

99:                                               ; preds = %27
  ret void
}

; Function Attrs: mustprogress uwtable
define internal void @_ZN2cvL9inRange8sEPKamS1_mS1_mPhmNS_5Size_IiEE(ptr noundef %0, i64 noundef %1, ptr noundef %2, i64 noundef %3, ptr noundef %4, i64 noundef %5, ptr noundef %6, i64 noundef %7, i64 %8) #0 {
  %10 = alloca %"class.cv::Size_", align 4
  %11 = alloca ptr, align 8
  %12 = alloca i64, align 8
  %13 = alloca ptr, align 8
  %14 = alloca i64, align 8
  %15 = alloca ptr, align 8
  %16 = alloca i64, align 8
  %17 = alloca ptr, align 8
  %18 = alloca i64, align 8
  %19 = alloca %"class.cv::Size_", align 4
  store i64 %8, ptr %10, align 4
  store ptr %0, ptr %11, align 8
  store i64 %1, ptr %12, align 8
  store ptr %2, ptr %13, align 8
  store i64 %3, ptr %14, align 8
  store ptr %4, ptr %15, align 8
  store i64 %5, ptr %16, align 8
  store ptr %6, ptr %17, align 8
  store i64 %7, ptr %18, align 8
  %20 = load ptr, ptr %11, align 8
  %21 = load i64, ptr %12, align 8
  %22 = load ptr, ptr %13, align 8
  %23 = load i64, ptr %14, align 8
  %24 = load ptr, ptr %15, align 8
  %25 = load i64, ptr %16, align 8
  %26 = load ptr, ptr %17, align 8
  %27 = load i64, ptr %18, align 8
  call void @llvm.memcpy.p0.p0.i64(ptr align 4 %19, ptr align 4 %10, i64 8, i1 false)
  %28 = load i64, ptr %19, align 4
  call void @_ZN2cvL8inRange_IaEEvPKT_mS3_mS3_mPhmNS_5Size_IiEE(ptr noundef %20, i64 noundef %21, ptr noundef %22, i64 noundef %23, ptr noundef %24, i64 noundef %25, ptr noundef %26, i64 noundef %27, i64 %28)
  ret void
}