; Function Attrs: mustprogress nofree norecurse nosync nounwind memory(readwrite, inaccessiblemem: none) uwtable
define internal void @_ZN2cvL9inRange8sEPKamS1_mS1_mPhmNS_5Size_IiEE(ptr nocapture noundef readonly %0, i64 noundef %1, ptr nocapture noundef readonly %2, i64 noundef %3, ptr nocapture noundef readonly %4, i64 noundef %5, ptr nocapture noundef writeonly %6, i64 noundef %7, i64 %8) #13 {
  %.not34.i = icmp ugt i64 %8, 4294967295
  %.sroa.0.0.extract.trunc.i = trunc i64 %8 to i32
  %10 = icmp sgt i32 %.sroa.0.0.extract.trunc.i, 0
  %or.cond.i = and i1 %.not34.i, %10
  br i1 %or.cond.i, label %.preheader.us.preheader.i, label %_ZN2cvL8inRange_IaEEvPKT_mS3_mS3_mPhmNS_5Size_IiEE.exit

.preheader.us.preheader.i:                        ; preds = %9
  %.sroa.3.0.extract.shift.i = lshr i64 %8, 32
  %.sroa.3.0.extract.trunc.i = trunc nuw i64 %.sroa.3.0.extract.shift.i to i32
  %wide.trip.count.i = and i64 %8, 2147483647
  br label %.preheader.us.i

.preheader.us.i:                                  ; preds = %._crit_edge.us.i, %.preheader.us.preheader.i
  %.in.i = phi i32 [ %24, %._crit_edge.us.i ], [ %.sroa.3.0.extract.trunc.i, %.preheader.us.preheader.i ]
  %.02738.us.i = phi ptr [ %28, %._crit_edge.us.i ], [ %6, %.preheader.us.preheader.i ]
  %.02837.us.i = phi ptr [ %27, %._crit_edge.us.i ], [ %4, %.preheader.us.preheader.i ]
  %.02936.us.i = phi ptr [ %26, %._crit_edge.us.i ], [ %2, %.preheader.us.preheader.i ]
  %.03035.us.i = phi ptr [ %25, %._crit_edge.us.i ], [ %0, %.preheader.us.preheader.i ]
  br label %11

11:                                               ; preds = %20, %.preheader.us.i
  %indvars.iv.i = phi i64 [ 0, %.preheader.us.i ], [ %indvars.iv.next.i, %20 ]
  %12 = getelementptr inbounds i8, ptr %.02936.us.i, i64 %indvars.iv.i
  %13 = load i8, ptr %12, align 1
  %14 = getelementptr inbounds i8, ptr %.03035.us.i, i64 %indvars.iv.i
  %15 = load i8, ptr %14, align 1
  %.not32.us.i = icmp sgt i8 %13, %15
  br i1 %.not32.us.i, label %20, label %16

16:                                               ; preds = %11
  %17 = getelementptr inbounds i8, ptr %.02837.us.i, i64 %indvars.iv.i
  %18 = load i8, ptr %17, align 1
  %19 = icmp sle i8 %15, %18
  br label %20

20:                                               ; preds = %16, %11
  %21 = phi i1 [ false, %11 ], [ %19, %16 ]
  %22 = sext i1 %21 to i8
  %23 = getelementptr inbounds i8, ptr %.02738.us.i, i64 %indvars.iv.i
  store i8 %22, ptr %23, align 1
  %indvars.iv.next.i = add nuw nsw i64 %indvars.iv.i, 1
  %exitcond.not.i = icmp eq i64 %indvars.iv.next.i, %wide.trip.count.i
  br i1 %exitcond.not.i, label %._crit_edge.us.i, label %11, !llvm.loop !131

._crit_edge.us.i:                                 ; preds = %20
  %24 = add nsw i32 %.in.i, -1
  %25 = getelementptr inbounds i8, ptr %.03035.us.i, i64 %1
  %26 = getelementptr inbounds i8, ptr %.02936.us.i, i64 %3
  %27 = getelementptr inbounds i8, ptr %.02837.us.i, i64 %5
  %28 = getelementptr inbounds i8, ptr %.02738.us.i, i64 %7
  %.not.us.i = icmp eq i32 %24, 0
  br i1 %.not.us.i, label %_ZN2cvL8inRange_IaEEvPKT_mS3_mS3_mPhmNS_5Size_IiEE.exit, label %.preheader.us.i, !llvm.loop !132

_ZN2cvL8inRange_IaEEvPKT_mS3_mS3_mPhmNS_5Size_IiEE.exit: ; preds = %._crit_edge.us.i, %9
  ret void
}